; Function Attrs: mustprogress nounwind uwtable
define internal void @_ZN12_GLOBAL__N_115HTMLDiagnosticsD2Ev(ptr noundef nonnull align 8 dereferenceable(168) initializes((0, 8)) %0) unnamed_addr #0 align 2 {
  store ptr getelementptr inbounds nuw inrange(-16, 64) (i8, ptr @_ZTVN12_GLOBAL__N_115HTMLDiagnosticsE, i64 16), ptr %0, align 8
  tail call void @_ZN5clang4ento22PathDiagnosticConsumer16FlushDiagnosticsEPNS1_9FilesMadeE(ptr noundef nonnull align 8 dereferenceable(32) %0, ptr noundef null) #18
  %2 = getelementptr inbounds nuw i8, ptr %0, i64 160
  %3 = load ptr, ptr %2, align 8
  %.not.i.i.i = icmp eq ptr %3, null
  br i1 %.not.i.i.i, label %_ZNSt10shared_ptrIN5clang4html17RelexRewriteCacheEED2Ev.exit, label %4

4:                                                ; preds = %1
  %5 = getelementptr inbounds nuw i8, ptr %3, i64 8
  %6 = load atomic i64, ptr %5 acquire, align 8
  %7 = icmp eq i64 %6, 4294967297
  %8 = trunc i64 %6 to i32
  br i1 %7, label %9, label %14

9:                                                ; preds = %4
  store i32 0, ptr %5, align 8
  %10 = getelementptr inbounds nuw i8, ptr %3, i64 12
  store i32 0, ptr %10, align 4
  %11 = load ptr, ptr %3, align 8
  %12 = getelementptr inbounds nuw i8, ptr %11, i64 16
  %13 = load ptr, ptr %12, align 8
  tail call void %13(ptr noundef nonnull align 8 dereferenceable(16) %3) #18
  br label %_ZNSt16_Sp_counted_baseILN9__gnu_cxx12_Lock_policyE2EE24_M_release_last_use_coldEv.exit.sink.split.i.i.i.i

14:                                               ; preds = %4
  %15 = load i8, ptr @__libc_single_threaded, align 1
  %.not.i.i.i.i = icmp eq i8 %15, 0
  br i1 %.not.i.i.i.i, label %18, label %16

16:                                               ; preds = %14
  %17 = add nsw i32 %8, -1
  store i32 %17, ptr %5, align 4
  br label %20

18:                                               ; preds = %14
  %19 = atomicrmw volatile add ptr %5, i32 -1 acq_rel, align 4
  br label %20

20:                                               ; preds = %18, %16
  %.0.i.i.i.i = phi i32 [ %8, %16 ], [ %19, %18 ]
  %21 = icmp eq i32 %.0.i.i.i.i, 1
  br i1 %21, label %22, label %_ZNSt10shared_ptrIN5clang4html17RelexRewriteCacheEED2Ev.exit

22:                                               ; preds = %20
  %23 = load ptr, ptr %3, align 8
  %24 = getelementptr inbounds nuw i8, ptr %23, i64 16
  %25 = load ptr, ptr %24, align 8
  tail call void %25(ptr noundef nonnull align 8 dereferenceable(16) %3) #18
  %26 = getelementptr inbounds nuw i8, ptr %3, i64 12
  %27 = load i8, ptr @__libc_single_threaded, align 1
  %.not.i.i.i.i.i.i = icmp eq i8 %27, 0
  br i1 %.not.i.i.i.i.i.i, label %31, label %28

28:                                               ; preds = %22
  %29 = load i32, ptr %26, align 4
  %30 = add nsw i32 %29, -1
  store i32 %30, ptr %26, align 4
  br label %33

31:                                               ; preds = %22
  %32 = atomicrmw volatile add ptr %26, i32 -1 acq_rel, align 4
  br label %33

33:                                               ; preds = %31, %28
  %.0.i.i.i.i.i.i = phi i32 [ %29, %28 ], [ %32, %31 ]
  %34 = icmp eq i32 %.0.i.i.i.i.i.i, 1
  br i1 %34, label %_ZNSt16_Sp_counted_baseILN9__gnu_cxx12_Lock_policyE2EE24_M_release_last_use_coldEv.exit.sink.split.i.i.i.i, label %_ZNSt10shared_ptrIN5clang4html17RelexRewriteCacheEED2Ev.exit

_ZNSt16_Sp_counted_baseILN9__gnu_cxx12_Lock_policyE2EE24_M_release_last_use_coldEv.exit.sink.split.i.i.i.i: ; preds = %33, %9
  %35 = load ptr, ptr %3, align 8
  %36 = getelementptr inbounds nuw i8, ptr %35, i64 24
  %37 = load ptr, ptr %36, align 8
  tail call void %37(ptr noundef nonnull align 8 dereferenceable(16) %3) #18
  br label %_ZNSt10shared_ptrIN5clang4html17RelexRewriteCacheEED2Ev.exit

_ZNSt10shared_ptrIN5clang4html17RelexRewriteCacheEED2Ev.exit: ; preds = %1, %20, %33, %_ZNSt16_Sp_counted_baseILN9__gnu_cxx12_Lock_policyE2EE24_M_release_last_use_coldEv.exit.sink.split.i.i.i.i
  %38 = getelementptr inbounds nuw i8, ptr %0, i64 128
  %39 = getelementptr inbounds nuw i8, ptr %0, i64 140
  %40 = load i32, ptr %39, align 4
  %41 = icmp eq i32 %40, 0
  br i1 %41, label %_ZN4llvm9StringSetINS_15MallocAllocatorEED2Ev.exit, label %42

42:                                               ; preds = %_ZNSt10shared_ptrIN5clang4html17RelexRewriteCacheEED2Ev.exit
  %43 = getelementptr inbounds nuw i8, ptr %0, i64 136
  %44 = load i32, ptr %43, align 8
  %.not10.i.i = icmp eq i32 %44, 0
  br i1 %.not10.i.i, label %_ZN4llvm9StringSetINS_15MallocAllocatorEED2Ev.exit, label %.lr.ph.preheader.i.i

.lr.ph.preheader.i.i:                             ; preds = %42
  %45 = zext i32 %44 to i64
  br label %.lr.ph.i.i

.lr.ph.i.i:                                       ; preds = %52, %.lr.ph.preheader.i.i
  %indvars.iv.i.i = phi i64 [ 0, %.lr.ph.preheader.i.i ], [ %indvars.iv.next.i.i, %52 ]
  %46 = load ptr, ptr %38, align 8
  %47 = getelementptr inbounds nuw ptr, ptr %46, i64 %indvars.iv.i.i
  %48 = load ptr, ptr %47, align 8
  %magicptr.i.i = ptrtoint ptr %48 to i64
  switch i64 %magicptr.i.i, label %49 [
    i64 0, label %52
    i64 -8, label %52
  ]

49:                                               ; preds = %.lr.ph.i.i
  %50 = load i64, ptr %48, align 8
  %51 = add i64 %50, 9
  tail call void @_ZN4llvm17deallocate_bufferEPvmm(ptr noundef nonnull align 8 dereferenceable(8) %48, i64 noundef %51, i64 noundef 8) #18
  br label %52

52:                                               ; preds = %49, %.lr.ph.i.i, %.lr.ph.i.i
  %indvars.iv.next.i.i = add nuw nsw i64 %indvars.iv.i.i, 1
  %.not.i.i = icmp eq i64 %indvars.iv.next.i.i, %45
  br i1 %.not.i.i, label %_ZN4llvm9StringSetINS_15MallocAllocatorEED2Ev.exit, label %.lr.ph.i.i, !llvm.loop !4

_ZN4llvm9StringSetINS_15MallocAllocatorEED2Ev.exit: ; preds = %52, %_ZNSt10shared_ptrIN5clang4html17RelexRewriteCacheEED2Ev.exit, %42
  %53 = load ptr, ptr %38, align 8
  tail call void @free(ptr noundef %53) #18
  %54 = getelementptr inbounds nuw i8, ptr %0, i64 72
  tail call void @_ZNSt7__cxx1112basic_stringIcSt11char_traitsIcESaIcEED1Ev(ptr noundef nonnull align 8 dereferenceable(32) %54) #18
  %55 = getelementptr inbounds nuw i8, ptr %0, i64 32
  tail call void @_ZNSt7__cxx1112basic_stringIcSt11char_traitsIcESaIcEED1Ev(ptr noundef nonnull align 8 dereferenceable(38) %55) #18
  tail call void @_ZN5clang4ento22PathDiagnosticConsumerD2Ev(ptr noundef nonnull align 8 dereferenceable(32) %0) #18
  ret void
}